; ModuleID = '55/236.c'
source_filename = "55/236.c"
target datalayout = "e-m:e-p270:32:32-p271:32:32-p272:64:64-i64:64-f80:128-n8:16:32:64-S128"
target triple = "x86_64-pc-linux-gnu"

@.str = private unnamed_addr constant [3 x i8] c"%d\00", align 1
@.str.1 = private unnamed_addr constant [2 x i8] c"0\00", align 1
@.str.2 = private unnamed_addr constant [2 x i8] c"\0A\00", align 1

; Function Attrs: noinline nounwind uwtable
define dso_local void @main() #0 {
  %1 = alloca i32, align 4
  %2 = alloca i32, align 4
  %3 = alloca [100 x i32], align 16
  %4 = alloca [100 x i32], align 16
  %5 = alloca i32, align 4
  %6 = alloca i32, align 4
  %7 = alloca i32, align 4
  %8 = alloca i32, align 4
  %9 = alloca i64, align 8
  store i64 0, i64* %9, align 8
  %10 = call i32 (i8*, ...) @__isoc99_scanf(i8* getelementptr inbounds ([3 x i8], [3 x i8]* @.str, i64 0, i64 0), i32* %1)
  %11 = call i32 @getchar()
  store i32 %11, i32* %8, align 4
  store i32 0, i32* %5, align 4
  br label %12

12:                                               ; preds = %24, %0
  %13 = call i32 @getchar()
  %14 = load i32, i32* %5, align 4
  %15 = sext i32 %14 to i64
  %16 = getelementptr inbounds [100 x i32], [100 x i32]* %3, i64 0, i64 %15
  store i32 %13, i32* %16, align 4
  %17 = load i32, i32* %5, align 4
  %18 = sext i32 %17 to i64
  %19 = getelementptr inbounds [100 x i32], [100 x i32]* %3, i64 0, i64 %18
  %20 = load i32, i32* %19, align 4
  %21 = icmp eq i32 %20, 32
  br i1 %21, label %22, label %23

22:                                               ; preds = %12
  br label %27

23:                                               ; preds = %12
  br label %24

24:                                               ; preds = %23
  %25 = load i32, i32* %5, align 4
  %26 = add nsw i32 %25, 1
  store i32 %26, i32* %5, align 4
  br label %12

27:                                               ; preds = %22
  %28 = call i32 (i8*, ...) @__isoc99_scanf(i8* getelementptr inbounds ([3 x i8], [3 x i8]* @.str, i64 0, i64 0), i32* %2)
  store i32 0, i32* %6, align 4
  br label %29

29:                                               ; preds = %97, %27
  %30 = load i32, i32* %6, align 4
  %31 = load i32, i32* %5, align 4
  %32 = icmp slt i32 %30, %31
  br i1 %32, label %33, label %100

33:                                               ; preds = %29
  %34 = load i32, i32* %6, align 4
  %35 = sext i32 %34 to i64
  %36 = getelementptr inbounds [100 x i32], [100 x i32]* %3, i64 0, i64 %35
  %37 = load i32, i32* %36, align 4
  %38 = icmp sge i32 %37, 48
  br i1 %38, label %39, label %54

39:                                               ; preds = %33
  %40 = load i32, i32* %6, align 4
  %41 = sext i32 %40 to i64
  %42 = getelementptr inbounds [100 x i32], [100 x i32]* %3, i64 0, i64 %41
  %43 = load i32, i32* %42, align 4
  %44 = icmp sle i32 %43, 57
  br i1 %44, label %45, label %54

45:                                               ; preds = %39
  %46 = load i32, i32* %6, align 4
  %47 = sext i32 %46 to i64
  %48 = getelementptr inbounds [100 x i32], [100 x i32]* %3, i64 0, i64 %47
  %49 = load i32, i32* %48, align 4
  %50 = sub nsw i32 %49, 48
  %51 = load i32, i32* %6, align 4
  %52 = sext i32 %51 to i64
  %53 = getelementptr inbounds [100 x i32], [100 x i32]* %3, i64 0, i64 %52
  store i32 %50, i32* %53, align 4
  br label %54

54:                                               ; preds = %45, %39, %33
  %55 = load i32, i32* %6, align 4
  %56 = sext i32 %55 to i64
  %57 = getelementptr inbounds [100 x i32], [100 x i32]* %3, i64 0, i64 %56
  %58 = load i32, i32* %57, align 4
  %59 = icmp sge i32 %58, 65
  br i1 %59, label %60, label %75

60:                                               ; preds = %54
  %61 = load i32, i32* %6, align 4
  %62 = sext i32 %61 to i64
  %63 = getelementptr inbounds [100 x i32], [100 x i32]* %3, i64 0, i64 %62
  %64 = load i32, i32* %63, align 4
  %65 = icmp sle i32 %64, 90
  br i1 %65, label %66, label %75

66:                                               ; preds = %60
  %67 = load i32, i32* %6, align 4
  %68 = sext i32 %67 to i64
  %69 = getelementptr inbounds [100 x i32], [100 x i32]* %3, i64 0, i64 %68
  %70 = load i32, i32* %69, align 4
  %71 = sub nsw i32 %70, 55
  %72 = load i32, i32* %6, align 4
  %73 = sext i32 %72 to i64
  %74 = getelementptr inbounds [100 x i32], [100 x i32]* %3, i64 0, i64 %73
  store i32 %71, i32* %74, align 4
  br label %75

75:                                               ; preds = %66, %60, %54
  %76 = load i32, i32* %6, align 4
  %77 = sext i32 %76 to i64
  %78 = getelementptr inbounds [100 x i32], [100 x i32]* %3, i64 0, i64 %77
  %79 = load i32, i32* %78, align 4
  %80 = icmp sge i32 %79, 97
  br i1 %80, label %81, label %96

81:                                               ; preds = %75
  %82 = load i32, i32* %6, align 4
  %83 = sext i32 %82 to i64
  %84 = getelementptr inbounds [100 x i32], [100 x i32]* %3, i64 0, i64 %83
  %85 = load i32, i32* %84, align 4
  %86 = icmp sle i32 %85, 122
  br i1 %86, label %87, label %96

87:                                               ; preds = %81
  %88 = load i32, i32* %6, align 4
  %89 = sext i32 %88 to i64
  %90 = getelementptr inbounds [100 x i32], [100 x i32]* %3, i64 0, i64 %89
  %91 = load i32, i32* %90, align 4
  %92 = sub nsw i32 %91, 87
  %93 = load i32, i32* %6, align 4
  %94 = sext i32 %93 to i64
  %95 = getelementptr inbounds [100 x i32], [100 x i32]* %3, i64 0, i64 %94
  store i32 %92, i32* %95, align 4
  br label %96

96:                                               ; preds = %87, %81, %75
  br label %97

97:                                               ; preds = %96
  %98 = load i32, i32* %6, align 4
  %99 = add nsw i32 %98, 1
  store i32 %99, i32* %6, align 4
  br label %29

100:                                              ; preds = %29
  store i32 0, i32* %6, align 4
  br label %101

101:                                              ; preds = %116, %100
  %102 = load i32, i32* %6, align 4
  %103 = load i32, i32* %5, align 4
  %104 = icmp slt i32 %102, %103
  br i1 %104, label %105, label %119

105:                                              ; preds = %101
  %106 = load i32, i32* %1, align 4
  %107 = sext i32 %106 to i64
  %108 = load i64, i64* %9, align 8
  %109 = mul nsw i64 %107, %108
  %110 = load i32, i32* %6, align 4
  %111 = sext i32 %110 to i64
  %112 = getelementptr inbounds [100 x i32], [100 x i32]* %3, i64 0, i64 %111
  %113 = load i32, i32* %112, align 4
  %114 = sext i32 %113 to i64
  %115 = add nsw i64 %109, %114
  store i64 %115, i64* %9, align 8
  br label %116

116:                                              ; preds = %105
  %117 = load i32, i32* %6, align 4
  %118 = add nsw i32 %117, 1
  store i32 %118, i32* %6, align 4
  br label %101

119:                                              ; preds = %101
  %120 = load i64, i64* %9, align 8
  %121 = icmp eq i64 %120, 0
  br i1 %121, label %122, label %124

122:                                              ; preds = %119
  %123 = call i32 (i8*, ...) @printf(i8* getelementptr inbounds ([2 x i8], [2 x i8]* @.str.1, i64 0, i64 0))
  br label %124

124:                                              ; preds = %122, %119
  store i32 0, i32* %6, align 4
  br label %125

125:                                              ; preds = %165, %124
  %126 = load i64, i64* %9, align 8
  %127 = icmp ne i64 %126, 0
  br i1 %127, label %128, label %168

128:                                              ; preds = %125
  %129 = load i64, i64* %9, align 8
  %130 = load i32, i32* %2, align 4
  %131 = sext i32 %130 to i64
  %132 = srem i64 %129, %131
  %133 = trunc i64 %132 to i32
  %134 = load i32, i32* %6, align 4
  %135 = sext i32 %134 to i64
  %136 = getelementptr inbounds [100 x i32], [100 x i32]* %4, i64 0, i64 %135
  store i32 %133, i32* %136, align 4
  %137 = load i64, i64* %9, align 8
  %138 = load i32, i32* %2, align 4
  %139 = sext i32 %138 to i64
  %140 = sdiv i64 %137, %139
  store i64 %140, i64* %9, align 8
  %141 = load i32, i32* %6, align 4
  %142 = sext i32 %141 to i64
  %143 = getelementptr inbounds [100 x i32], [100 x i32]* %4, i64 0, i64 %142
  %144 = load i32, i32* %143, align 4
  %145 = icmp sge i32 %144, 10
  br i1 %145, label %146, label %155

146:                                              ; preds = %128
  %147 = load i32, i32* %6, align 4
  %148 = sext i32 %147 to i64
  %149 = getelementptr inbounds [100 x i32], [100 x i32]* %4, i64 0, i64 %148
  %150 = load i32, i32* %149, align 4
  %151 = add nsw i32 %150, 55
  %152 = load i32, i32* %6, align 4
  %153 = sext i32 %152 to i64
  %154 = getelementptr inbounds [100 x i32], [100 x i32]* %4, i64 0, i64 %153
  store i32 %151, i32* %154, align 4
  br label %164

155:                                              ; preds = %128
  %156 = load i32, i32* %6, align 4
  %157 = sext i32 %156 to i64
  %158 = getelementptr inbounds [100 x i32], [100 x i32]* %4, i64 0, i64 %157
  %159 = load i32, i32* %158, align 4
  %160 = add nsw i32 %159, 48
  %161 = load i32, i32* %6, align 4
  %162 = sext i32 %161 to i64
  %163 = getelementptr inbounds [100 x i32], [100 x i32]* %4, i64 0, i64 %162
  store i32 %160, i32* %163, align 4
  br label %164

164:                                              ; preds = %155, %146
  br label %165

165:                                              ; preds = %164
  %166 = load i32, i32* %6, align 4
  %167 = add nsw i32 %166, 1
  store i32 %167, i32* %6, align 4
  br label %125

168:                                              ; preds = %125
  %169 = load i32, i32* %6, align 4
  %170 = sub nsw i32 %169, 1
  store i32 %170, i32* %7, align 4
  br label %171

171:                                              ; preds = %180, %168
  %172 = load i32, i32* %7, align 4
  %173 = icmp sge i32 %172, 0
  br i1 %173, label %174, label %183

174:                                              ; preds = %171
  %175 = load i32, i32* %7, align 4
  %176 = sext i32 %175 to i64
  %177 = getelementptr inbounds [100 x i32], [100 x i32]* %4, i64 0, i64 %176
  %178 = load i32, i32* %177, align 4
  %179 = call i32 @putchar(i32 %178)
  br label %180

180:                                              ; preds = %174
  %181 = load i32, i32* %7, align 4
  %182 = add nsw i32 %181, -1
  store i32 %182, i32* %7, align 4
  br label %171

183:                                              ; preds = %171
  %184 = call i32 (i8*, ...) @printf(i8* getelementptr inbounds ([2 x i8], [2 x i8]* @.str.2, i64 0, i64 0))
  ret void
}

declare dso_local i32 @__isoc99_scanf(i8*, ...) #1

declare dso_local i32 @getchar() #1

declare dso_local i32 @printf(i8*, ...) #1

declare dso_local i32 @putchar(i32) #1


!llvm.module.flags = !{!0}
!llvm.ident = !{!1}

!0 = !{i32 1, !"wchar_size", i32 4}
!1 = !{!"clang version 10.0.0-4ubuntu1 "}
